; Function Attrs: nounwind uwtable
define internal range(i32 0, 2) i32 @aead_tls_get_iv(ptr noundef readonly captures(none) %0, ptr noundef writeonly captures(none) %1, ptr noundef writeonly captures(none) %2) #1 {
  %4 = getelementptr inbounds nuw i8, ptr %0, i64 8
  %5 = load ptr, ptr %4, align 8, !tbaa !6
  %6 = tail call i32 @EVP_CIPHER_CTX_iv_length(ptr noundef %5) #8
  %7 = icmp ult i32 %6, 2
  br i1 %7, label %11, label %8

8:                                                ; preds = %3
  %9 = zext i32 %6 to i64
  %10 = getelementptr inbounds nuw i8, ptr %5, i64 52
  store ptr %10, ptr %1, align 8, !tbaa !33
  store i64 %9, ptr %2, align 8, !tbaa !26
  br label %11

11:                                               ; preds = %3, %8
  %.0 = phi i32 [ 1, %8 ], [ 0, %3 ]
  ret i32 %.0
}